target datalayout = "e-m:e-p270:32:32-p271:32:32-p272:64:64-i64:64-i128:128-f80:128-n8:16:32:64-S128"
target triple = "x86_64-pc-linux-gnu"

%"class.std::__cxx11::basic_string" = type { %"struct.std::__cxx11::basic_string<char>::_Alloc_hider", i64, %union.anon }
%"struct.std::__cxx11::basic_string<char>::_Alloc_hider" = type { ptr }
%union.anon = type { i64, [8 x i8] }
%"class.std::unique_ptr" = type { %"struct.std::__uniq_ptr_data" }
%"struct.std::__uniq_ptr_data" = type { %"class.std::__uniq_ptr_impl" }
%"class.std::__uniq_ptr_impl" = type { %"class.std::tuple" }
%"class.std::tuple" = type { %"struct.std::_Tuple_impl" }
%"struct.std::_Tuple_impl" = type { %"struct.std::_Head_base.25" }
%"struct.std::_Head_base.25" = type { ptr }
%class.cmValue = type { ptr }
%"class.std::vector.3" = type { %"struct.std::_Vector_base.4" }
%"struct.std::_Vector_base.4" = type { %"struct.std::_Vector_base<std::__cxx11::basic_string<char>, std::allocator<std::__cxx11::basic_string<char>>>::_Vector_impl" }
%"struct.std::_Vector_base<std::__cxx11::basic_string<char>, std::allocator<std::__cxx11::basic_string<char>>>::_Vector_impl" = type { %"struct.std::_Vector_base<std::__cxx11::basic_string<char>, std::allocator<std::__cxx11::basic_string<char>>>::_Vector_impl_data" }
%"struct.std::_Vector_base<std::__cxx11::basic_string<char>, std::allocator<std::__cxx11::basic_string<char>>>::_Vector_impl_data" = type { ptr, ptr, ptr }
%class.cmComputeLinkInformation = type { %"class.std::vector", %"class.std::vector.3", %"class.std::vector.3", %"class.std::vector.3", %"class.std::vector.3", %"class.std::vector.3", %"class.std::set", %"class.std::vector.11", %"class.std::vector.11", ptr, ptr, ptr, ptr, %"class.std::__cxx11::basic_string", %"class.std::__cxx11::basic_string", %class.cmValue, %"class.std::__cxx11::basic_string", %"class.std::__cxx11::basic_string", %"class.std::__cxx11::basic_string", %"class.std::__cxx11::basic_string", %"class.std::__cxx11::basic_string", %"class.std::__cxx11::basic_string", %"class.std::__cxx11::basic_string", %"class.std::__cxx11::basic_string", i32, i32, i32, %"class.std::__cxx11::basic_string", %"class.std::__cxx11::basic_string", %"class.std::vector.3", %"class.std::vector.3", %"class.std::vector.3", %"class.std::set.16", %"class.cmsys::RegularExpression", %"class.cmsys::RegularExpression", %"class.cmsys::RegularExpression", %"class.std::__cxx11::basic_string", %"class.std::set.16", %"class.std::unique_ptr", %"class.std::set.16", %"class.std::set.16", %"class.std::vector.3", %"class.std::set.16", %"class.std::vector.3", %"class.std::vector.3", %"class.std::set.16", %"class.std::unique_ptr", %"class.std::unique_ptr", i8, i8, i8, i8, i8, i8, i8, i8, i8, %"class.std::map", %"class.std::map" }
%"class.std::vector" = type { %"struct.std::_Vector_base" }
%"struct.std::_Vector_base" = type { %"struct.std::_Vector_base<cmComputeLinkInformation::Item, std::allocator<cmComputeLinkInformation::Item>>::_Vector_impl" }
%"struct.std::_Vector_base<cmComputeLinkInformation::Item, std::allocator<cmComputeLinkInformation::Item>>::_Vector_impl" = type { %"struct.std::_Vector_base<cmComputeLinkInformation::Item, std::allocator<cmComputeLinkInformation::Item>>::_Vector_impl_data" }
%"struct.std::_Vector_base<cmComputeLinkInformation::Item, std::allocator<cmComputeLinkInformation::Item>>::_Vector_impl_data" = type { ptr, ptr, ptr }
%"class.std::set" = type { %"class.std::_Rb_tree" }
%"class.std::_Rb_tree" = type { %"struct.std::_Rb_tree<const cmGeneratorTarget *, const cmGeneratorTarget *, std::_Identity<const cmGeneratorTarget *>, std::less<const cmGeneratorTarget *>>::_Rb_tree_impl" }
%"struct.std::_Rb_tree<const cmGeneratorTarget *, const cmGeneratorTarget *, std::_Identity<const cmGeneratorTarget *>, std::less<const cmGeneratorTarget *>>::_Rb_tree_impl" = type { %"struct.std::_Rb_tree_key_compare", %"struct.std::_Rb_tree_header" }
%"struct.std::_Rb_tree_key_compare" = type { %"struct.std::less" }
%"struct.std::less" = type { i8 }
%"struct.std::_Rb_tree_header" = type { %"struct.std::_Rb_tree_node_base", i64 }
%"struct.std::_Rb_tree_node_base" = type { i32, ptr, ptr, ptr }
%"class.std::vector.11" = type { %"struct.std::_Vector_base.12" }
%"struct.std::_Vector_base.12" = type { %"struct.std::_Vector_base<const cmGeneratorTarget *, std::allocator<const cmGeneratorTarget *>>::_Vector_impl" }
%"struct.std::_Vector_base<const cmGeneratorTarget *, std::allocator<const cmGeneratorTarget *>>::_Vector_impl" = type { %"struct.std::_Vector_base<const cmGeneratorTarget *, std::allocator<const cmGeneratorTarget *>>::_Vector_impl_data" }
%"struct.std::_Vector_base<const cmGeneratorTarget *, std::allocator<const cmGeneratorTarget *>>::_Vector_impl_data" = type { ptr, ptr, ptr }
%"class.cmsys::RegularExpression" = type <{ %"class.cmsys::RegularExpressionMatch", i8, i8, [6 x i8], ptr, i64, ptr, i32, [4 x i8] }>
%"class.cmsys::RegularExpressionMatch" = type { [32 x ptr], [32 x ptr], ptr }
%"class.std::set.16" = type { %"class.std::_Rb_tree.17" }
%"class.std::_Rb_tree.17" = type { %"struct.std::_Rb_tree<std::__cxx11::basic_string<char>, std::__cxx11::basic_string<char>, std::_Identity<std::__cxx11::basic_string<char>>, std::less<std::__cxx11::basic_string<char>>>::_Rb_tree_impl" }
%"struct.std::_Rb_tree<std::__cxx11::basic_string<char>, std::__cxx11::basic_string<char>, std::_Identity<std::__cxx11::basic_string<char>>, std::less<std::__cxx11::basic_string<char>>>::_Rb_tree_impl" = type { %"struct.std::_Rb_tree_key_compare.21", %"struct.std::_Rb_tree_header" }
%"struct.std::_Rb_tree_key_compare.21" = type { %"struct.std::less.22" }
%"struct.std::less.22" = type { i8 }
%"class.std::map" = type { %"class.std::_Rb_tree.26" }
%"class.std::_Rb_tree.26" = type { %"struct.std::_Rb_tree<std::__cxx11::basic_string<char>, std::pair<const std::__cxx11::basic_string<char>, cmComputeLinkInformation::FeatureDescriptor>, std::_Select1st<std::pair<const std::__cxx11::basic_string<char>, cmComputeLinkInformation::FeatureDescriptor>>, std::less<std::__cxx11::basic_string<char>>>::_Rb_tree_impl" }
%"struct.std::_Rb_tree<std::__cxx11::basic_string<char>, std::pair<const std::__cxx11::basic_string<char>, cmComputeLinkInformation::FeatureDescriptor>, std::_Select1st<std::pair<const std::__cxx11::basic_string<char>, cmComputeLinkInformation::FeatureDescriptor>>, std::less<std::__cxx11::basic_string<char>>>::_Rb_tree_impl" = type { %"struct.std::_Rb_tree_key_compare.21", %"struct.std::_Rb_tree_header" }
%class.cmListFileBacktrace = type { %class.cmConstStack }
%class.cmConstStack = type { %"class.std::shared_ptr" }
%"class.std::shared_ptr" = type { %"class.std::__shared_ptr" }
%"class.std::__shared_ptr" = type { ptr, %"class.std::__shared_count" }
%"class.std::__shared_count" = type { ptr }
%class.BT = type { %"class.std::__cxx11::basic_string", %class.cmListFileBacktrace }
%"struct.cmComputeLinkDepends::LinkEntry" = type { %class.BT, ptr, ptr, i32, %"class.std::__cxx11::basic_string" }

; Function Attrs: mustprogress uwtable
define linkonce_odr dso_local noundef zeroext i1 @_ZN5cmsys17RegularExpression4findEPKc(ptr noundef nonnull align 8 dereferenceable(556) %0, ptr noundef %1) #4 comdat align 2 {
  %3 = alloca ptr, align 8
  %4 = alloca ptr, align 8
  store ptr %0, ptr %3, align 8
  store ptr %1, ptr %4, align 8
  %5 = load ptr, ptr %3, align 8
  %6 = load ptr, ptr %4, align 8
  %7 = getelementptr inbounds %"class.cmsys::RegularExpression", ptr %5, i32 0, i32 0
  %8 = call noundef zeroext i1 @_ZNK5cmsys17RegularExpression4findEPKcRNS_22RegularExpressionMatchE(ptr noundef nonnull align 8 dereferenceable(556) %5, ptr noundef %6, ptr noundef nonnull align 8 dereferenceable(520) %7)
  ret i1 %8
}

; Function Attrs: mustprogress uwtable
define linkonce_odr dso_local noundef zeroext i1 @_ZN5cmsys17RegularExpression4findERKNSt7__cxx1112basic_stringIcSt11char_traitsIcESaIcEEE(ptr noundef nonnull align 8 dereferenceable(556) %0, ptr noundef nonnull align 8 dereferenceable(32) %1) #4 comdat align 2 {
  %3 = alloca ptr, align 8
  %4 = alloca ptr, align 8
  store ptr %0, ptr %3, align 8
  store ptr %1, ptr %4, align 8
  %5 = load ptr, ptr %3, align 8
  %6 = load ptr, ptr %4, align 8
  %7 = call noundef ptr @_ZNKSt7__cxx1112basic_stringIcSt11char_traitsIcESaIcEE5c_strEv(ptr noundef nonnull align 8 dereferenceable(32) %6) #3
  %8 = call noundef zeroext i1 @_ZN5cmsys17RegularExpression4findEPKc(ptr noundef nonnull align 8 dereferenceable(556) %5, ptr noundef %7)
  ret i1 %8
}

; Function Attrs: mustprogress uwtable
define dso_local noundef zeroext i1 @_ZN24cmComputeLinkInformation22CheckSharedLibNoSONameERKN20cmComputeLinkDepends9LinkEntryE(ptr noundef nonnull align 8 dereferenceable(2960) %0, ptr noundef nonnull align 8 dereferenceable(104) %1) #4 align 2 personality ptr @__gxx_personality_v0 {
  %3 = alloca i1, align 1
  %4 = alloca ptr, align 8
  %5 = alloca ptr, align 8
  %6 = alloca %"class.std::__cxx11::basic_string", align 8
  %7 = alloca ptr, align 8
  %8 = alloca i32, align 4
  %9 = alloca %"class.std::__cxx11::basic_string", align 8
  %10 = alloca i32, align 4
  store ptr %0, ptr %4, align 8
  store ptr %1, ptr %5, align 8
  %11 = load ptr, ptr %4, align 8
  %12 = load ptr, ptr %5, align 8
  %13 = getelementptr inbounds %"struct.cmComputeLinkDepends::LinkEntry", ptr %12, i32 0, i32 0
  %14 = getelementptr inbounds %class.BT, ptr %13, i32 0, i32 0
  call void @_ZN5cmsys11SystemTools15GetFilenameNameERKNSt7__cxx1112basic_stringIcSt11char_traitsIcESaIcEEE(ptr dead_on_unwind writable sret(%"class.std::__cxx11::basic_string") align 8 %6, ptr noundef nonnull align 8 dereferenceable(32) %14)
  %15 = getelementptr inbounds %class.cmComputeLinkInformation, ptr %11, i32 0, i32 34
  %16 = invoke noundef zeroext i1 @_ZN5cmsys17RegularExpression4findERKNSt7__cxx1112basic_stringIcSt11char_traitsIcESaIcEEE(ptr noundef nonnull align 8 dereferenceable(556) %15, ptr noundef nonnull align 8 dereferenceable(32) %6)
          to label %17 unwind label %27

17:                                               ; preds = %2
  br i1 %16, label %18, label %39

18:                                               ; preds = %17
  call void @_ZNSt7__cxx1112basic_stringIcSt11char_traitsIcESaIcEEC1Ev(ptr noundef nonnull align 8 dereferenceable(32) %9) #3
  %19 = load ptr, ptr %5, align 8
  %20 = getelementptr inbounds %"struct.cmComputeLinkDepends::LinkEntry", ptr %19, i32 0, i32 0
  %21 = getelementptr inbounds %class.BT, ptr %20, i32 0, i32 0
  %22 = invoke noundef zeroext i1 @_ZN13cmSystemTools18GuessLibrarySONameERKNSt7__cxx1112basic_stringIcSt11char_traitsIcESaIcEEERS5_(ptr noundef nonnull align 8 dereferenceable(32) %21, ptr noundef nonnull align 8 dereferenceable(32) %9)
          to label %23 unwind label %31

23:                                               ; preds = %18
  br i1 %22, label %35, label %24

24:                                               ; preds = %23
  %25 = load ptr, ptr %5, align 8
  invoke void @_ZN24cmComputeLinkInformation20AddSharedLibNoSONameERKN20cmComputeLinkDepends9LinkEntryE(ptr noundef nonnull align 8 dereferenceable(2960) %11, ptr noundef nonnull align 8 dereferenceable(104) %25)
          to label %26 unwind label %31

26:                                               ; preds = %24
  store i1 true, ptr %3, align 1
  store i32 1, ptr %10, align 4
  br label %36

27:                                               ; preds = %2
  %28 = landingpad { ptr, i32 }
          cleanup
  %29 = extractvalue { ptr, i32 } %28, 0
  store ptr %29, ptr %7, align 8
  %30 = extractvalue { ptr, i32 } %28, 1
  store i32 %30, ptr %8, align 4
  br label %42

31:                                               ; preds = %24, %18
  %32 = landingpad { ptr, i32 }
          cleanup
  %33 = extractvalue { ptr, i32 } %32, 0
  store ptr %33, ptr %7, align 8
  %34 = extractvalue { ptr, i32 } %32, 1
  store i32 %34, ptr %8, align 4
  call void @_ZNSt7__cxx1112basic_stringIcSt11char_traitsIcESaIcEED1Ev(ptr noundef nonnull align 8 dereferenceable(32) %9) #3
  br label %42

35:                                               ; preds = %23
  store i32 0, ptr %10, align 4
  br label %36

36:                                               ; preds = %35, %26
  call void @_ZNSt7__cxx1112basic_stringIcSt11char_traitsIcESaIcEED1Ev(ptr noundef nonnull align 8 dereferenceable(32) %9) #3
  %37 = load i32, ptr %10, align 4
  switch i32 %37, label %40 [
    i32 0, label %38
  ]

38:                                               ; preds = %36
  br label %39

39:                                               ; preds = %38, %17
  store i1 false, ptr %3, align 1
  store i32 1, ptr %10, align 4
  br label %40

40:                                               ; preds = %39, %36
  call void @_ZNSt7__cxx1112basic_stringIcSt11char_traitsIcESaIcEED1Ev(ptr noundef nonnull align 8 dereferenceable(32) %6) #3
  %41 = load i1, ptr %3, align 1
  ret i1 %41

42:                                               ; preds = %31, %27
  call void @_ZNSt7__cxx1112basic_stringIcSt11char_traitsIcESaIcEED1Ev(ptr noundef nonnull align 8 dereferenceable(32) %6) #3
  br label %43

43:                                               ; preds = %42
  %44 = load ptr, ptr %7, align 8
  %45 = load i32, ptr %8, align 4
  %46 = insertvalue { ptr, i32 } poison, ptr %44, 0
  %47 = insertvalue { ptr, i32 } %46, i32 %45, 1
  resume { ptr, i32 } %47
}