; Function Attrs: mustprogress uwtable
define dso_local noundef zeroext i1 @_ZN24cmComputeLinkInformation22CheckSharedLibNoSONameERKN20cmComputeLinkDepends9LinkEntryE(ptr noundef nonnull align 8 dereferenceable(2960) %0, ptr noundef nonnull align 8 dereferenceable(104) %1) local_unnamed_addr #3 align 2 personality ptr @__gxx_personality_v0 {
  %3 = alloca %"class.std::__cxx11::basic_string", align 8
  %4 = alloca %"class.std::__cxx11::basic_string", align 8
  call void @_ZN5cmsys11SystemTools15GetFilenameNameERKNSt7__cxx1112basic_stringIcSt11char_traitsIcESaIcEEE(ptr dead_on_unwind nonnull writable sret(%"class.std::__cxx11::basic_string") align 8 %3, ptr noundef nonnull align 8 dereferenceable(32) %1)
  %5 = getelementptr inbounds i8, ptr %0, i64 1360
  %6 = call noundef ptr @_ZNKSt7__cxx1112basic_stringIcSt11char_traitsIcESaIcEE5c_strEv(ptr noundef nonnull align 8 dereferenceable(32) %3) #19
  %7 = invoke noundef zeroext i1 @_ZNK5cmsys17RegularExpression4findEPKcRNS_22RegularExpressionMatchE(ptr noundef nonnull align 8 dereferenceable(556) %5, ptr noundef %6, ptr noundef nonnull align 8 dereferenceable(520) %5)
          to label %_ZN5cmsys17RegularExpression4findERKNSt7__cxx1112basic_stringIcSt11char_traitsIcESaIcEEE.exit unwind label %12

_ZN5cmsys17RegularExpression4findERKNSt7__cxx1112basic_stringIcSt11char_traitsIcESaIcEEE.exit: ; preds = %2
  br i1 %7, label %8, label %16

8:                                                ; preds = %_ZN5cmsys17RegularExpression4findERKNSt7__cxx1112basic_stringIcSt11char_traitsIcESaIcEEE.exit
  call void @_ZNSt7__cxx1112basic_stringIcSt11char_traitsIcESaIcEEC1Ev(ptr noundef nonnull align 8 dereferenceable(32) %4) #19
  %9 = invoke noundef zeroext i1 @_ZN13cmSystemTools18GuessLibrarySONameERKNSt7__cxx1112basic_stringIcSt11char_traitsIcESaIcEEERS5_(ptr noundef nonnull align 8 dereferenceable(32) %1, ptr noundef nonnull align 8 dereferenceable(32) %4)
          to label %10 unwind label %14

10:                                               ; preds = %8
  br i1 %9, label %.sink.split, label %11

11:                                               ; preds = %10
  invoke void @_ZN24cmComputeLinkInformation20AddSharedLibNoSONameERKN20cmComputeLinkDepends9LinkEntryE(ptr noundef nonnull align 8 dereferenceable(2960) %0, ptr noundef nonnull align 8 dereferenceable(104) %1)
          to label %.sink.split unwind label %14

12:                                               ; preds = %2
  %13 = landingpad { ptr, i32 }
          cleanup
  br label %17

14:                                               ; preds = %11, %8
  %15 = landingpad { ptr, i32 }
          cleanup
  call void @_ZNSt7__cxx1112basic_stringIcSt11char_traitsIcESaIcEED1Ev(ptr noundef nonnull align 8 dereferenceable(32) %4) #19
  br label %17

.sink.split:                                      ; preds = %10, %11
  %.1.ph = xor i1 %9, true
  call void @_ZNSt7__cxx1112basic_stringIcSt11char_traitsIcESaIcEED1Ev(ptr noundef nonnull align 8 dereferenceable(32) %4) #19
  br label %16

16:                                               ; preds = %.sink.split, %_ZN5cmsys17RegularExpression4findERKNSt7__cxx1112basic_stringIcSt11char_traitsIcESaIcEEE.exit
  %.1 = phi i1 [ false, %_ZN5cmsys17RegularExpression4findERKNSt7__cxx1112basic_stringIcSt11char_traitsIcESaIcEEE.exit ], [ %.1.ph, %.sink.split ]
  call void @_ZNSt7__cxx1112basic_stringIcSt11char_traitsIcESaIcEED1Ev(ptr noundef nonnull align 8 dereferenceable(32) %3) #19
  ret i1 %.1

17:                                               ; preds = %14, %12
  %.pn = phi { ptr, i32 } [ %15, %14 ], [ %13, %12 ]
  call void @_ZNSt7__cxx1112basic_stringIcSt11char_traitsIcESaIcEED1Ev(ptr noundef nonnull align 8 dereferenceable(32) %3) #19
  resume { ptr, i32 } %.pn
}